target datalayout = "e-m:e-p270:32:32-p271:32:32-p272:64:64-i64:64-i128:128-f80:128-n8:16:32:64-S128"
target triple = "x86_64-pc-linux-gnu"

%"struct.cv::face::splitr" = type { i64, i64, float }

; Function Attrs: mustprogress uwtable
define hidden void @_ZN2cv4face18FacemarkKazemiImpl9readSplitERSt14basic_ifstreamIcSt11char_traitsIcEERNS0_6splitrE(ptr noundef nonnull align 8 dereferenceable(216) %0, ptr noundef nonnull align 8 dereferenceable(256) %1, ptr noundef nonnull align 8 dereferenceable(24) %2) #7 align 2 {
  %4 = alloca ptr, align 8
  %5 = alloca ptr, align 8
  %6 = alloca ptr, align 8
  %7 = alloca i32, align 4
  store ptr %0, ptr %4, align 8, !tbaa !3
  store ptr %1, ptr %5, align 8, !tbaa !43
  store ptr %2, ptr %6, align 8, !tbaa !45
  %8 = load ptr, ptr %5, align 8, !tbaa !43
  %9 = load ptr, ptr %6, align 8, !tbaa !45
  %10 = getelementptr inbounds nuw %"struct.cv::face::splitr", ptr %9, i32 0, i32 0
  %11 = call noundef nonnull align 8 dereferenceable(16) ptr @_ZNSi4readEPcl(ptr noundef nonnull align 8 dereferenceable(16) %8, ptr noundef %10, i64 noundef 8)
  %12 = load ptr, ptr %5, align 8, !tbaa !43
  %13 = load ptr, ptr %6, align 8, !tbaa !45
  %14 = getelementptr inbounds nuw %"struct.cv::face::splitr", ptr %13, i32 0, i32 1
  %15 = call noundef nonnull align 8 dereferenceable(16) ptr @_ZNSi4readEPcl(ptr noundef nonnull align 8 dereferenceable(16) %12, ptr noundef %14, i64 noundef 8)
  %16 = load ptr, ptr %5, align 8, !tbaa !43
  %17 = load ptr, ptr %6, align 8, !tbaa !45
  %18 = getelementptr inbounds nuw %"struct.cv::face::splitr", ptr %17, i32 0, i32 2
  %19 = call noundef nonnull align 8 dereferenceable(16) ptr @_ZNSi4readEPcl(ptr noundef nonnull align 8 dereferenceable(16) %16, ptr noundef %18, i64 noundef 4)
  call void @llvm.lifetime.start.p0(i64 4, ptr %7) #3
  store i32 0, ptr %7, align 4, !tbaa !15
  %20 = load ptr, ptr %5, align 8, !tbaa !43
  %21 = call noundef nonnull align 8 dereferenceable(16) ptr @_ZNSi4readEPcl(ptr noundef nonnull align 8 dereferenceable(16) %20, ptr noundef %7, i64 noundef 4)
  br label %22

22:                                               ; preds = %3
  br label %23

23:                                               ; preds = %22
  br label %24

24:                                               ; preds = %23
  call void @llvm.lifetime.end.p0(i64 4, ptr %7) #3
  ret void
}