; Function Attrs: mustprogress uwtable
define hidden void @_ZN2cv4face18FacemarkKazemiImpl9readSplitERSt14basic_ifstreamIcSt11char_traitsIcEERNS0_6splitrE(ptr noundef nonnull readnone align 8 captures(none) dereferenceable(216) %0, ptr noundef nonnull align 8 dereferenceable(256) %1, ptr noundef nonnull align 8 dereferenceable(24) %2) local_unnamed_addr #5 align 2 {
  %4 = alloca i32, align 4
  %5 = tail call noundef nonnull align 8 dereferenceable(16) ptr @_ZNSi4readEPcl(ptr noundef nonnull align 8 dereferenceable(16) %1, ptr noundef nonnull %2, i64 noundef 8)
  %6 = getelementptr inbounds nuw i8, ptr %2, i64 8
  %7 = tail call noundef nonnull align 8 dereferenceable(16) ptr @_ZNSi4readEPcl(ptr noundef nonnull align 8 dereferenceable(16) %1, ptr noundef nonnull %6, i64 noundef 8)
  %8 = getelementptr inbounds nuw i8, ptr %2, i64 16
  %9 = tail call noundef nonnull align 8 dereferenceable(16) ptr @_ZNSi4readEPcl(ptr noundef nonnull align 8 dereferenceable(16) %1, ptr noundef nonnull %8, i64 noundef 4)
  call void @llvm.lifetime.start.p0(i64 4, ptr nonnull %4) #24
  store i32 0, ptr %4, align 4, !tbaa !34
  %10 = call noundef nonnull align 8 dereferenceable(16) ptr @_ZNSi4readEPcl(ptr noundef nonnull align 8 dereferenceable(16) %1, ptr noundef nonnull %4, i64 noundef 4)
  call void @llvm.lifetime.end.p0(i64 4, ptr nonnull %4) #24
  ret void
}